ARM GAS  /tmp/cc57WBxZ.s 			page 1


   1              		.cpu cortex-m3
   2              		.eabi_attribute 20, 1
   3              		.eabi_attribute 21, 1
   4              		.eabi_attribute 23, 3
   5              		.eabi_attribute 24, 1
   6              		.eabi_attribute 25, 1
   7              		.eabi_attribute 26, 1
   8              		.eabi_attribute 30, 6
   9              		.eabi_attribute 34, 1
  10              		.eabi_attribute 18, 4
  11              		.file	"inout.c"
  12              		.text
  13              	.Ltext0:
  14              		.cfi_sections	.debug_frame
  15              		.global	KEY0_PUSH
  16              		.section	.bss.KEY0_PUSH,"aw",%nobits
  19              	KEY0_PUSH:
  20 0000 00       		.space	1
  21              		.global	KEY1_PUSH
  22              		.section	.bss.KEY1_PUSH,"aw",%nobits
  25              	KEY1_PUSH:
  26 0000 00       		.space	1
  27              		.section	.text.pinMode,"ax",%progbits
  28              		.align	1
  29              		.global	pinMode
  30              		.arch armv7-m
  31              		.syntax unified
  32              		.thumb
  33              		.thumb_func
  34              		.fpu softvfp
  36              	pinMode:
  37              	.LFB63:
  38              		.file 1 "hardware/src/inout.c"
   1:hardware/src/inout.c **** #include "inout.h"
   2:hardware/src/inout.c **** #include "stm32f10x.h"
   3:hardware/src/inout.c **** #include "key_c8.h"
   4:hardware/src/inout.c **** 
   5:hardware/src/inout.c **** char KEY0_PUSH = 0;
   6:hardware/src/inout.c **** char KEY1_PUSH = 0;
   7:hardware/src/inout.c **** 
   8:hardware/src/inout.c **** // model:1(output);0(input);2(pwm)
   9:hardware/src/inout.c **** void pinMode(char pin_n,char module)
  10:hardware/src/inout.c **** {
  39              		.loc 1 10 1
  40              		.cfi_startproc
  41              		@ args = 0, pretend = 0, frame = 8
  42              		@ frame_needed = 1, uses_anonymous_args = 0
  43 0000 80B5     		push	{r7, lr}
  44              	.LCFI0:
  45              		.cfi_def_cfa_offset 8
  46              		.cfi_offset 7, -8
  47              		.cfi_offset 14, -4
  48 0002 82B0     		sub	sp, sp, #8
  49              	.LCFI1:
  50              		.cfi_def_cfa_offset 16
  51 0004 00AF     		add	r7, sp, #0
  52              	.LCFI2:
ARM GAS  /tmp/cc57WBxZ.s 			page 2


  53              		.cfi_def_cfa_register 7
  54 0006 0346     		mov	r3, r0
  55 0008 0A46     		mov	r2, r1
  56 000a FB71     		strb	r3, [r7, #7]
  57 000c 1346     		mov	r3, r2
  58 000e BB71     		strb	r3, [r7, #6]
  11:hardware/src/inout.c ****     switch(module){
  59              		.loc 1 11 5
  60 0010 BB79     		ldrb	r3, [r7, #6]	@ zero_extendqisi2
  61 0012 022B     		cmp	r3, #2
  62 0014 10D0     		beq	.L2
  63 0016 022B     		cmp	r3, #2
  64 0018 12DC     		bgt	.L7
  65 001a 002B     		cmp	r3, #0
  66 001c 02D0     		beq	.L4
  67 001e 012B     		cmp	r3, #1
  68 0020 05D0     		beq	.L5
  69              	.LBB2:
  12:hardware/src/inout.c ****         case 0:
  13:hardware/src/inout.c ****             keys_init(pin_n);
  14:hardware/src/inout.c ****             break;
  15:hardware/src/inout.c ****         case 1:
  16:hardware/src/inout.c ****             leds_init(pin_n);
  17:hardware/src/inout.c ****             break;
  18:hardware/src/inout.c ****         case 2:
  19:hardware/src/inout.c ****         // PA1 PWM
  20:hardware/src/inout.c ****             servo_attach(0);
  21:hardware/src/inout.c ****             break;
  22:hardware/src/inout.c ****         default:
  23:hardware/src/inout.c ****             break;
  70              		.loc 1 23 13
  71 0022 0DE0     		b	.L7
  72              	.L4:
  13:hardware/src/inout.c ****             break;
  73              		.loc 1 13 13
  74 0024 FB79     		ldrb	r3, [r7, #7]	@ zero_extendqisi2
  75 0026 1846     		mov	r0, r3
  76 0028 FFF7FEFF 		bl	keys_init
  14:hardware/src/inout.c ****         case 1:
  77              		.loc 1 14 13
  78 002c 09E0     		b	.L6
  79              	.L5:
  16:hardware/src/inout.c ****             break;
  80              		.loc 1 16 13
  81 002e FB79     		ldrb	r3, [r7, #7]	@ zero_extendqisi2
  82 0030 1846     		mov	r0, r3
  83 0032 FFF7FEFF 		bl	leds_init
  17:hardware/src/inout.c ****         case 2:
  84              		.loc 1 17 13
  85 0036 04E0     		b	.L6
  86              	.L2:
  20:hardware/src/inout.c ****             break;
  87              		.loc 1 20 13
  88 0038 0020     		movs	r0, #0
  89 003a FFF7FEFF 		bl	servo_attach
  21:hardware/src/inout.c ****         default:
  90              		.loc 1 21 13
ARM GAS  /tmp/cc57WBxZ.s 			page 3


  91 003e 00E0     		b	.L6
  92              	.L7:
  93              		.loc 1 23 13
  94 0040 00BF     		nop
  95              	.L6:
  96              	.LBE2:
  24:hardware/src/inout.c ****     }
  25:hardware/src/inout.c **** }
  97              		.loc 1 25 1
  98 0042 00BF     		nop
  99 0044 0837     		adds	r7, r7, #8
 100              	.LCFI3:
 101              		.cfi_def_cfa_offset 8
 102 0046 BD46     		mov	sp, r7
 103              	.LCFI4:
 104              		.cfi_def_cfa_register 13
 105              		@ sp needed
 106 0048 80BD     		pop	{r7, pc}
 107              		.cfi_endproc
 108              	.LFE63:
 110              		.section	.text.digitalWrite,"ax",%progbits
 111              		.align	1
 112              		.global	digitalWrite
 113              		.syntax unified
 114              		.thumb
 115              		.thumb_func
 116              		.fpu softvfp
 118              	digitalWrite:
 119              	.LFB64:
  26:hardware/src/inout.c **** 
  27:hardware/src/inout.c **** void digitalWrite(char led_n,char status)
  28:hardware/src/inout.c **** {
 120              		.loc 1 28 1
 121              		.cfi_startproc
 122              		@ args = 0, pretend = 0, frame = 8
 123              		@ frame_needed = 1, uses_anonymous_args = 0
 124 0000 80B5     		push	{r7, lr}
 125              	.LCFI5:
 126              		.cfi_def_cfa_offset 8
 127              		.cfi_offset 7, -8
 128              		.cfi_offset 14, -4
 129 0002 82B0     		sub	sp, sp, #8
 130              	.LCFI6:
 131              		.cfi_def_cfa_offset 16
 132 0004 00AF     		add	r7, sp, #0
 133              	.LCFI7:
 134              		.cfi_def_cfa_register 7
 135 0006 0346     		mov	r3, r0
 136 0008 0A46     		mov	r2, r1
 137 000a FB71     		strb	r3, [r7, #7]
 138 000c 1346     		mov	r3, r2
 139 000e BB71     		strb	r3, [r7, #6]
  29:hardware/src/inout.c ****     led_set_status(led_n,status);
 140              		.loc 1 29 5
 141 0010 FB79     		ldrb	r3, [r7, #7]	@ zero_extendqisi2
 142 0012 BA79     		ldrb	r2, [r7, #6]	@ zero_extendqisi2
 143 0014 1146     		mov	r1, r2
ARM GAS  /tmp/cc57WBxZ.s 			page 4


 144 0016 1846     		mov	r0, r3
 145 0018 FFF7FEFF 		bl	led_set_status
  30:hardware/src/inout.c **** }
 146              		.loc 1 30 1
 147 001c 00BF     		nop
 148 001e 0837     		adds	r7, r7, #8
 149              	.LCFI8:
 150              		.cfi_def_cfa_offset 8
 151 0020 BD46     		mov	sp, r7
 152              	.LCFI9:
 153              		.cfi_def_cfa_register 13
 154              		@ sp needed
 155 0022 80BD     		pop	{r7, pc}
 156              		.cfi_endproc
 157              	.LFE64:
 159              		.section	.text.analogWrite,"ax",%progbits
 160              		.align	1
 161              		.global	analogWrite
 162              		.syntax unified
 163              		.thumb
 164              		.thumb_func
 165              		.fpu softvfp
 167              	analogWrite:
 168              	.LFB65:
  31:hardware/src/inout.c **** 
  32:hardware/src/inout.c **** void analogWrite(char led_n,char duty_cycle)
  33:hardware/src/inout.c **** {
 169              		.loc 1 33 1
 170              		.cfi_startproc
 171              		@ args = 0, pretend = 0, frame = 8
 172              		@ frame_needed = 1, uses_anonymous_args = 0
 173 0000 80B5     		push	{r7, lr}
 174              	.LCFI10:
 175              		.cfi_def_cfa_offset 8
 176              		.cfi_offset 7, -8
 177              		.cfi_offset 14, -4
 178 0002 82B0     		sub	sp, sp, #8
 179              	.LCFI11:
 180              		.cfi_def_cfa_offset 16
 181 0004 00AF     		add	r7, sp, #0
 182              	.LCFI12:
 183              		.cfi_def_cfa_register 7
 184 0006 0346     		mov	r3, r0
 185 0008 0A46     		mov	r2, r1
 186 000a FB71     		strb	r3, [r7, #7]
 187 000c 1346     		mov	r3, r2
 188 000e BB71     		strb	r3, [r7, #6]
  34:hardware/src/inout.c ****     led_set_pwm(led_n,duty_cycle);
 189              		.loc 1 34 5
 190 0010 FB79     		ldrb	r3, [r7, #7]	@ zero_extendqisi2
 191 0012 BA79     		ldrb	r2, [r7, #6]	@ zero_extendqisi2
 192 0014 1146     		mov	r1, r2
 193 0016 1846     		mov	r0, r3
 194 0018 FFF7FEFF 		bl	led_set_pwm
  35:hardware/src/inout.c **** }
 195              		.loc 1 35 1
 196 001c 00BF     		nop
ARM GAS  /tmp/cc57WBxZ.s 			page 5


 197 001e 0837     		adds	r7, r7, #8
 198              	.LCFI13:
 199              		.cfi_def_cfa_offset 8
 200 0020 BD46     		mov	sp, r7
 201              	.LCFI14:
 202              		.cfi_def_cfa_register 13
 203              		@ sp needed
 204 0022 80BD     		pop	{r7, pc}
 205              		.cfi_endproc
 206              	.LFE65:
 208              		.section	.text.digitalRead,"ax",%progbits
 209              		.align	1
 210              		.global	digitalRead
 211              		.syntax unified
 212              		.thumb
 213              		.thumb_func
 214              		.fpu softvfp
 216              	digitalRead:
 217              	.LFB66:
  36:hardware/src/inout.c **** 
  37:hardware/src/inout.c **** char digitalRead(char key_n)
  38:hardware/src/inout.c **** {
 218              		.loc 1 38 1
 219              		.cfi_startproc
 220              		@ args = 0, pretend = 0, frame = 8
 221              		@ frame_needed = 1, uses_anonymous_args = 0
 222              		@ link register save eliminated.
 223 0000 80B4     		push	{r7}
 224              	.LCFI15:
 225              		.cfi_def_cfa_offset 4
 226              		.cfi_offset 7, -4
 227 0002 83B0     		sub	sp, sp, #12
 228              	.LCFI16:
 229              		.cfi_def_cfa_offset 16
 230 0004 00AF     		add	r7, sp, #0
 231              	.LCFI17:
 232              		.cfi_def_cfa_register 7
 233 0006 0346     		mov	r3, r0
 234 0008 FB71     		strb	r3, [r7, #7]
  39:hardware/src/inout.c ****     switch(key_n){
 235              		.loc 1 39 5
 236 000a FB79     		ldrb	r3, [r7, #7]	@ zero_extendqisi2
 237 000c 002B     		cmp	r3, #0
 238 000e 02D0     		beq	.L11
 239 0010 012B     		cmp	r3, #1
 240 0012 0BD0     		beq	.L12
 241 0014 15E0     		b	.L17
 242              	.L11:
  40:hardware/src/inout.c ****         case 0:
  41:hardware/src/inout.c ****             if(KEY0_PUSH){
 243              		.loc 1 41 16
 244 0016 0E4B     		ldr	r3, .L18
 245 0018 1B78     		ldrb	r3, [r3]	@ zero_extendqisi2
 246              		.loc 1 41 15
 247 001a 002B     		cmp	r3, #0
 248 001c 04D0     		beq	.L14
  42:hardware/src/inout.c ****                 KEY0_PUSH = 0;
ARM GAS  /tmp/cc57WBxZ.s 			page 6


 249              		.loc 1 42 27
 250 001e 0C4B     		ldr	r3, .L18
 251 0020 0022     		movs	r2, #0
 252 0022 1A70     		strb	r2, [r3]
  43:hardware/src/inout.c ****                 return 1;
 253              		.loc 1 43 24
 254 0024 0123     		movs	r3, #1
 255 0026 0DE0     		b	.L15
 256              	.L14:
  44:hardware/src/inout.c ****             }
  45:hardware/src/inout.c ****             else{
  46:hardware/src/inout.c ****                 return 0;
 257              		.loc 1 46 24
 258 0028 0023     		movs	r3, #0
 259 002a 0BE0     		b	.L15
 260              	.L12:
  47:hardware/src/inout.c ****             }
  48:hardware/src/inout.c ****         case 1:
  49:hardware/src/inout.c ****             if(KEY1_PUSH){
 261              		.loc 1 49 16
 262 002c 094B     		ldr	r3, .L18+4
 263 002e 1B78     		ldrb	r3, [r3]	@ zero_extendqisi2
 264              		.loc 1 49 15
 265 0030 002B     		cmp	r3, #0
 266 0032 04D0     		beq	.L16
  50:hardware/src/inout.c ****                 KEY1_PUSH = 0;
 267              		.loc 1 50 27
 268 0034 074B     		ldr	r3, .L18+4
 269 0036 0022     		movs	r2, #0
 270 0038 1A70     		strb	r2, [r3]
  51:hardware/src/inout.c ****                 return 1;
 271              		.loc 1 51 24
 272 003a 0123     		movs	r3, #1
 273 003c 02E0     		b	.L15
 274              	.L16:
  52:hardware/src/inout.c ****             }
  53:hardware/src/inout.c ****             else{
  54:hardware/src/inout.c ****                 return 0;
 275              		.loc 1 54 24
 276 003e 0023     		movs	r3, #0
 277 0040 00E0     		b	.L15
 278              	.L17:
  55:hardware/src/inout.c ****             }
  56:hardware/src/inout.c ****         default:
  57:hardware/src/inout.c ****             return 0;
 279              		.loc 1 57 20
 280 0042 0023     		movs	r3, #0
 281              	.L15:
  58:hardware/src/inout.c ****     }
  59:hardware/src/inout.c **** }
 282              		.loc 1 59 1
 283 0044 1846     		mov	r0, r3
 284 0046 0C37     		adds	r7, r7, #12
 285              	.LCFI18:
 286              		.cfi_def_cfa_offset 4
 287 0048 BD46     		mov	sp, r7
 288              	.LCFI19:
ARM GAS  /tmp/cc57WBxZ.s 			page 7


 289              		.cfi_def_cfa_register 13
 290              		@ sp needed
 291 004a 80BC     		pop	{r7}
 292              	.LCFI20:
 293              		.cfi_restore 7
 294              		.cfi_def_cfa_offset 0
 295 004c 7047     		bx	lr
 296              	.L19:
 297 004e 00BF     		.align	2
 298              	.L18:
 299 0050 00000000 		.word	KEY0_PUSH
 300 0054 00000000 		.word	KEY1_PUSH
 301              		.cfi_endproc
 302              	.LFE66:
 304              		.text
 305              	.Letext0:
ARM GAS  /tmp/cc57WBxZ.s 			page 8

