ARM GAS  /tmp/ccbinFum.s 			page 1


   1              		.cpu cortex-m3
   2              		.eabi_attribute 20, 1
   3              		.eabi_attribute 21, 1
   4              		.eabi_attribute 23, 3
   5              		.eabi_attribute 24, 1
   6              		.eabi_attribute 25, 1
   7              		.eabi_attribute 26, 1
   8              		.eabi_attribute 30, 6
   9              		.eabi_attribute 34, 1
  10              		.eabi_attribute 18, 4
  11              		.file	"key_c8.c"
  12              		.text
  13              	.Ltext0:
  14              		.cfi_sections	.debug_frame
  15              		.section	.text.KEY0_init,"ax",%progbits
  16              		.align	1
  17              		.global	KEY0_init
  18              		.arch armv7-m
  19              		.syntax unified
  20              		.thumb
  21              		.thumb_func
  22              		.fpu softvfp
  24              	KEY0_init:
  25              	.LFB63:
  26              		.file 1 "hardware/src/key_c8.c"
   1:hardware/src/key_c8.c **** #include "key_c8.h"
   2:hardware/src/key_c8.c **** #include "stm32f10x.h"
   3:hardware/src/key_c8.c **** #include "exti.h"
   4:hardware/src/key_c8.c **** 
   5:hardware/src/key_c8.c **** void KEY0_init(void)
   6:hardware/src/key_c8.c **** {
  27              		.loc 1 6 1
  28              		.cfi_startproc
  29              		@ args = 0, pretend = 0, frame = 8
  30              		@ frame_needed = 1, uses_anonymous_args = 0
  31 0000 80B5     		push	{r7, lr}
  32              	.LCFI0:
  33              		.cfi_def_cfa_offset 8
  34              		.cfi_offset 7, -8
  35              		.cfi_offset 14, -4
  36 0002 82B0     		sub	sp, sp, #8
  37              	.LCFI1:
  38              		.cfi_def_cfa_offset 16
  39 0004 00AF     		add	r7, sp, #0
  40              	.LCFI2:
  41              		.cfi_def_cfa_register 7
   7:hardware/src/key_c8.c **** 	GPIO_InitTypeDef GPIO_InitStructure;
   8:hardware/src/key_c8.c **** 	RCC_APB2PeriphClockCmd(RCC_APB2Periph_GPIOA, ENABLE);
  42              		.loc 1 8 2
  43 0006 0121     		movs	r1, #1
  44 0008 0420     		movs	r0, #4
  45 000a FFF7FEFF 		bl	RCC_APB2PeriphClockCmd
   9:hardware/src/key_c8.c **** 
  10:hardware/src/key_c8.c **** 	GPIO_InitStructure.GPIO_Pin = GPIO_Pin_0;
  46              		.loc 1 10 30
  47 000e 0123     		movs	r3, #1
  48 0010 BB80     		strh	r3, [r7, #4]	@ movhi
ARM GAS  /tmp/ccbinFum.s 			page 2


  11:hardware/src/key_c8.c **** 	GPIO_InitStructure.GPIO_Mode = GPIO_Mode_IPU;
  49              		.loc 1 11 31
  50 0012 4823     		movs	r3, #72
  51 0014 FB71     		strb	r3, [r7, #7]
  12:hardware/src/key_c8.c **** 	GPIO_InitStructure.GPIO_Speed = GPIO_Speed_50MHz;
  52              		.loc 1 12 32
  53 0016 0323     		movs	r3, #3
  54 0018 BB71     		strb	r3, [r7, #6]
  13:hardware/src/key_c8.c **** 	GPIO_Init(GPIOA, &GPIO_InitStructure); 
  55              		.loc 1 13 2
  56 001a 3B1D     		adds	r3, r7, #4
  57 001c 1946     		mov	r1, r3
  58 001e 0348     		ldr	r0, .L2
  59 0020 FFF7FEFF 		bl	GPIO_Init
  14:hardware/src/key_c8.c **** }
  60              		.loc 1 14 1
  61 0024 00BF     		nop
  62 0026 0837     		adds	r7, r7, #8
  63              	.LCFI3:
  64              		.cfi_def_cfa_offset 8
  65 0028 BD46     		mov	sp, r7
  66              	.LCFI4:
  67              		.cfi_def_cfa_register 13
  68              		@ sp needed
  69 002a 80BD     		pop	{r7, pc}
  70              	.L3:
  71              		.align	2
  72              	.L2:
  73 002c 00080140 		.word	1073809408
  74              		.cfi_endproc
  75              	.LFE63:
  77              		.section	.text.keys_init,"ax",%progbits
  78              		.align	1
  79              		.global	keys_init
  80              		.syntax unified
  81              		.thumb
  82              		.thumb_func
  83              		.fpu softvfp
  85              	keys_init:
  86              	.LFB64:
  15:hardware/src/key_c8.c **** 
  16:hardware/src/key_c8.c **** void keys_init(char key_n)
  17:hardware/src/key_c8.c **** {
  87              		.loc 1 17 1
  88              		.cfi_startproc
  89              		@ args = 0, pretend = 0, frame = 8
  90              		@ frame_needed = 1, uses_anonymous_args = 0
  91 0000 80B5     		push	{r7, lr}
  92              	.LCFI5:
  93              		.cfi_def_cfa_offset 8
  94              		.cfi_offset 7, -8
  95              		.cfi_offset 14, -4
  96 0002 82B0     		sub	sp, sp, #8
  97              	.LCFI6:
  98              		.cfi_def_cfa_offset 16
  99 0004 00AF     		add	r7, sp, #0
 100              	.LCFI7:
ARM GAS  /tmp/ccbinFum.s 			page 3


 101              		.cfi_def_cfa_register 7
 102 0006 0346     		mov	r3, r0
 103 0008 FB71     		strb	r3, [r7, #7]
  18:hardware/src/key_c8.c **** 	switch (key_n)
 104              		.loc 1 18 2
 105 000a FB79     		ldrb	r3, [r7, #7]	@ zero_extendqisi2
 106 000c 002B     		cmp	r3, #0
 107 000e 04D1     		bne	.L7
 108              	.LBB2:
  19:hardware/src/key_c8.c **** 	{
  20:hardware/src/key_c8.c **** 	case 0:
  21:hardware/src/key_c8.c **** 		KEY0_init();
 109              		.loc 1 21 3
 110 0010 FFF7FEFF 		bl	KEY0_init
  22:hardware/src/key_c8.c **** 		EXTI0_Init();
 111              		.loc 1 22 3
 112 0014 FFF7FEFF 		bl	EXTI0_Init
  23:hardware/src/key_c8.c **** 		break;
 113              		.loc 1 23 3
 114 0018 00E0     		b	.L6
 115              	.L7:
  24:hardware/src/key_c8.c **** 
  25:hardware/src/key_c8.c **** 	default:
  26:hardware/src/key_c8.c **** 		break;
 116              		.loc 1 26 3
 117 001a 00BF     		nop
 118              	.L6:
 119              	.LBE2:
  27:hardware/src/key_c8.c **** 	}
  28:hardware/src/key_c8.c **** }
 120              		.loc 1 28 1
 121 001c 00BF     		nop
 122 001e 0837     		adds	r7, r7, #8
 123              	.LCFI8:
 124              		.cfi_def_cfa_offset 8
 125 0020 BD46     		mov	sp, r7
 126              	.LCFI9:
 127              		.cfi_def_cfa_register 13
 128              		@ sp needed
 129 0022 80BD     		pop	{r7, pc}
 130              		.cfi_endproc
 131              	.LFE64:
 133              		.text
 134              	.Letext0:
 135              		.file 2 "/home/pico/tools/gcc-arm-none-eabi-10-2020-q4-major/arm-none-eabi/include/machine/_defaul
 136              		.file 3 "/home/pico/tools/gcc-arm-none-eabi-10-2020-q4-major/arm-none-eabi/include/sys/_stdint.h"
 137              		.file 4 "Inc/stm32f10x.h"
 138              		.file 5 "Drivers/Inc/stm32f10x_gpio.h"
ARM GAS  /tmp/ccbinFum.s 			page 4

