ARM GAS  /tmp/ccFay6qM.s 			page 1


   1              		.cpu cortex-m3
   2              		.eabi_attribute 20, 1
   3              		.eabi_attribute 21, 1
   4              		.eabi_attribute 23, 3
   5              		.eabi_attribute 24, 1
   6              		.eabi_attribute 25, 1
   7              		.eabi_attribute 26, 1
   8              		.eabi_attribute 30, 6
   9              		.eabi_attribute 34, 1
  10              		.eabi_attribute 18, 4
  11              		.file	"led_c8.c"
  12              		.text
  13              	.Ltext0:
  14              		.cfi_sections	.debug_frame
  15              		.section	.rodata
  16              		.align	2
  17              	.LC0:
  18 0000 6572726F 		.ascii	"error input led_n\015\000"
  18      7220696E 
  18      70757420 
  18      6C65645F 
  18      6E0D00
  19              		.section	.text.leds_init,"ax",%progbits
  20              		.align	1
  21              		.global	leds_init
  22              		.arch armv7-m
  23              		.syntax unified
  24              		.thumb
  25              		.thumb_func
  26              		.fpu softvfp
  28              	leds_init:
  29              	.LFB66:
  30              		.file 1 "hardware/src/led_c8.c"
   1:hardware/src/led_c8.c **** 
   2:hardware/src/led_c8.c **** #include "led_c8.h"
   3:hardware/src/led_c8.c **** #include "stm32f10x.h"
   4:hardware/src/led_c8.c **** #include "stdio.h"
   5:hardware/src/led_c8.c **** 
   6:hardware/src/led_c8.c **** void leds_init(char led_n)
   7:hardware/src/led_c8.c **** {
  31              		.loc 1 7 1
  32              		.cfi_startproc
  33              		@ args = 0, pretend = 0, frame = 16
  34              		@ frame_needed = 1, uses_anonymous_args = 0
  35 0000 80B5     		push	{r7, lr}
  36              	.LCFI0:
  37              		.cfi_def_cfa_offset 8
  38              		.cfi_offset 7, -8
  39              		.cfi_offset 14, -4
  40 0002 84B0     		sub	sp, sp, #16
  41              	.LCFI1:
  42              		.cfi_def_cfa_offset 24
  43 0004 00AF     		add	r7, sp, #0
  44              	.LCFI2:
  45              		.cfi_def_cfa_register 7
  46 0006 0346     		mov	r3, r0
  47 0008 FB71     		strb	r3, [r7, #7]
ARM GAS  /tmp/ccFay6qM.s 			page 2


   8:hardware/src/led_c8.c **** 	GPIO_InitTypeDef GPIO_InitStructure;
   9:hardware/src/led_c8.c **** 	GPIO_InitStructure.GPIO_Mode = GPIO_Mode_Out_PP;
  48              		.loc 1 9 31
  49 000a 1023     		movs	r3, #16
  50 000c FB73     		strb	r3, [r7, #15]
  10:hardware/src/led_c8.c **** 	GPIO_InitStructure.GPIO_Speed=GPIO_Speed_50MHz;
  51              		.loc 1 10 31
  52 000e 0323     		movs	r3, #3
  53 0010 BB73     		strb	r3, [r7, #14]
  11:hardware/src/led_c8.c **** 	switch(led_n){
  54              		.loc 1 11 2
  55 0012 FB79     		ldrb	r3, [r7, #7]	@ zero_extendqisi2
  56 0014 002B     		cmp	r3, #0
  57 0016 12D1     		bne	.L2
  12:hardware/src/led_c8.c **** 		case 0:
  13:hardware/src/led_c8.c **** 			LED0_RCC_ENABLE();
  58              		.loc 1 13 4
  59 0018 0121     		movs	r1, #1
  60 001a 1020     		movs	r0, #16
  61 001c FFF7FEFF 		bl	RCC_APB2PeriphClockCmd
  14:hardware/src/led_c8.c **** 			GPIO_InitStructure.GPIO_Pin = LED0_PIN;
  62              		.loc 1 14 32
  63 0020 4FF40053 		mov	r3, #8192
  64 0024 BB81     		strh	r3, [r7, #12]	@ movhi
  15:hardware/src/led_c8.c **** 			GPIO_Init(LED0_PORT, &GPIO_InitStructure);
  65              		.loc 1 15 4
  66 0026 07F10C03 		add	r3, r7, #12
  67 002a 1946     		mov	r1, r3
  68 002c 0848     		ldr	r0, .L4
  69 002e FFF7FEFF 		bl	GPIO_Init
  16:hardware/src/led_c8.c **** 			LED0_POWER_OFF();
  70              		.loc 1 16 4
  71 0032 4FF40051 		mov	r1, #8192
  72 0036 0648     		ldr	r0, .L4
  73 0038 FFF7FEFF 		bl	GPIO_SetBits
  17:hardware/src/led_c8.c **** 			break;
  74              		.loc 1 17 4
  75 003c 03E0     		b	.L3
  76              	.L2:
  18:hardware/src/led_c8.c **** 		default:
  19:hardware/src/led_c8.c **** 			printf("error input led_n\r\n");
  77              		.loc 1 19 4
  78 003e 0548     		ldr	r0, .L4+4
  79 0040 FFF7FEFF 		bl	puts
  20:hardware/src/led_c8.c **** 			break;
  80              		.loc 1 20 4
  81 0044 00BF     		nop
  82              	.L3:
  21:hardware/src/led_c8.c **** 	}
  22:hardware/src/led_c8.c **** }
  83              		.loc 1 22 1
  84 0046 00BF     		nop
  85 0048 1037     		adds	r7, r7, #16
  86              	.LCFI3:
  87              		.cfi_def_cfa_offset 8
  88 004a BD46     		mov	sp, r7
  89              	.LCFI4:
ARM GAS  /tmp/ccFay6qM.s 			page 3


  90              		.cfi_def_cfa_register 13
  91              		@ sp needed
  92 004c 80BD     		pop	{r7, pc}
  93              	.L5:
  94 004e 00BF     		.align	2
  95              	.L4:
  96 0050 00100140 		.word	1073811456
  97 0054 00000000 		.word	.LC0
  98              		.cfi_endproc
  99              	.LFE66:
 101              		.section	.text.led_set_status,"ax",%progbits
 102              		.align	1
 103              		.global	led_set_status
 104              		.syntax unified
 105              		.thumb
 106              		.thumb_func
 107              		.fpu softvfp
 109              	led_set_status:
 110              	.LFB67:
  23:hardware/src/led_c8.c **** 
  24:hardware/src/led_c8.c **** void led_set_status(char led_n,char status)
  25:hardware/src/led_c8.c **** {
 111              		.loc 1 25 1
 112              		.cfi_startproc
 113              		@ args = 0, pretend = 0, frame = 8
 114              		@ frame_needed = 1, uses_anonymous_args = 0
 115 0000 80B5     		push	{r7, lr}
 116              	.LCFI5:
 117              		.cfi_def_cfa_offset 8
 118              		.cfi_offset 7, -8
 119              		.cfi_offset 14, -4
 120 0002 82B0     		sub	sp, sp, #8
 121              	.LCFI6:
 122              		.cfi_def_cfa_offset 16
 123 0004 00AF     		add	r7, sp, #0
 124              	.LCFI7:
 125              		.cfi_def_cfa_register 7
 126 0006 0346     		mov	r3, r0
 127 0008 0A46     		mov	r2, r1
 128 000a FB71     		strb	r3, [r7, #7]
 129 000c 1346     		mov	r3, r2
 130 000e BB71     		strb	r3, [r7, #6]
  26:hardware/src/led_c8.c **** 	switch (led_n)
 131              		.loc 1 26 2
 132 0010 FB79     		ldrb	r3, [r7, #7]	@ zero_extendqisi2
 133 0012 002B     		cmp	r3, #0
 134 0014 0ED1     		bne	.L11
  27:hardware/src/led_c8.c **** 	{
  28:hardware/src/led_c8.c **** 		case 0:
  29:hardware/src/led_c8.c **** 			if(status)
 135              		.loc 1 29 6
 136 0016 BB79     		ldrb	r3, [r7, #6]	@ zero_extendqisi2
 137 0018 002B     		cmp	r3, #0
 138 001a 05D0     		beq	.L8
  30:hardware/src/led_c8.c **** 				LED0_POWER_ON();
 139              		.loc 1 30 5
 140 001c 4FF40051 		mov	r1, #8192
ARM GAS  /tmp/ccFay6qM.s 			page 4


 141 0020 0748     		ldr	r0, .L12
 142 0022 FFF7FEFF 		bl	GPIO_ResetBits
  31:hardware/src/led_c8.c **** 			else
  32:hardware/src/led_c8.c **** 				LED0_POWER_OFF();
  33:hardware/src/led_c8.c **** 			break;
 143              		.loc 1 33 4
 144 0026 06E0     		b	.L10
 145              	.L8:
  32:hardware/src/led_c8.c **** 			break;
 146              		.loc 1 32 5
 147 0028 4FF40051 		mov	r1, #8192
 148 002c 0448     		ldr	r0, .L12
 149 002e FFF7FEFF 		bl	GPIO_SetBits
 150              		.loc 1 33 4
 151 0032 00E0     		b	.L10
 152              	.L11:
  34:hardware/src/led_c8.c **** 		default:
  35:hardware/src/led_c8.c **** 			break;
 153              		.loc 1 35 4
 154 0034 00BF     		nop
 155              	.L10:
  36:hardware/src/led_c8.c **** 	}
  37:hardware/src/led_c8.c **** }
 156              		.loc 1 37 1
 157 0036 00BF     		nop
 158 0038 0837     		adds	r7, r7, #8
 159              	.LCFI8:
 160              		.cfi_def_cfa_offset 8
 161 003a BD46     		mov	sp, r7
 162              	.LCFI9:
 163              		.cfi_def_cfa_register 13
 164              		@ sp needed
 165 003c 80BD     		pop	{r7, pc}
 166              	.L13:
 167 003e 00BF     		.align	2
 168              	.L12:
 169 0040 00100140 		.word	1073811456
 170              		.cfi_endproc
 171              	.LFE67:
 173              		.section	.text.led_set_pwm,"ax",%progbits
 174              		.align	1
 175              		.global	led_set_pwm
 176              		.syntax unified
 177              		.thumb
 178              		.thumb_func
 179              		.fpu softvfp
 181              	led_set_pwm:
 182              	.LFB68:
  38:hardware/src/led_c8.c **** 
  39:hardware/src/led_c8.c **** void led_set_pwm(char led_n,char duty_cycle)
  40:hardware/src/led_c8.c **** {
 183              		.loc 1 40 1
 184              		.cfi_startproc
 185              		@ args = 0, pretend = 0, frame = 8
 186              		@ frame_needed = 1, uses_anonymous_args = 0
 187 0000 80B5     		push	{r7, lr}
 188              	.LCFI10:
ARM GAS  /tmp/ccFay6qM.s 			page 5


 189              		.cfi_def_cfa_offset 8
 190              		.cfi_offset 7, -8
 191              		.cfi_offset 14, -4
 192 0002 82B0     		sub	sp, sp, #8
 193              	.LCFI11:
 194              		.cfi_def_cfa_offset 16
 195 0004 00AF     		add	r7, sp, #0
 196              	.LCFI12:
 197              		.cfi_def_cfa_register 7
 198 0006 0346     		mov	r3, r0
 199 0008 0A46     		mov	r2, r1
 200 000a FB71     		strb	r3, [r7, #7]
 201 000c 1346     		mov	r3, r2
 202 000e BB71     		strb	r3, [r7, #6]
  41:hardware/src/led_c8.c **** 	if(duty_cycle < 0)
  42:hardware/src/led_c8.c **** 		duty_cycle = 0;
  43:hardware/src/led_c8.c **** 	if(duty_cycle > 100)
 203              		.loc 1 43 4
 204 0010 BB79     		ldrb	r3, [r7, #6]	@ zero_extendqisi2
 205 0012 642B     		cmp	r3, #100
 206 0014 01D9     		bls	.L15
  44:hardware/src/led_c8.c **** 		duty_cycle = 100;
 207              		.loc 1 44 14
 208 0016 6423     		movs	r3, #100
 209 0018 BB71     		strb	r3, [r7, #6]
 210              	.L15:
  45:hardware/src/led_c8.c **** 	if(led_n == 3)
 211              		.loc 1 45 4
 212 001a FB79     		ldrb	r3, [r7, #7]	@ zero_extendqisi2
 213 001c 032B     		cmp	r3, #3
 214 001e 03D1     		bne	.L17
 215              	.LBB2:
  46:hardware/src/led_c8.c **** 		servo0_set_duty_cycle(duty_cycle);
 216              		.loc 1 46 3
 217 0020 BB79     		ldrb	r3, [r7, #6]	@ zero_extendqisi2
 218 0022 1846     		mov	r0, r3
 219 0024 FFF7FEFF 		bl	servo0_set_duty_cycle
 220              	.L17:
 221              	.LBE2:
  47:hardware/src/led_c8.c **** }
 222              		.loc 1 47 1
 223 0028 00BF     		nop
 224 002a 0837     		adds	r7, r7, #8
 225              	.LCFI13:
 226              		.cfi_def_cfa_offset 8
 227 002c BD46     		mov	sp, r7
 228              	.LCFI14:
 229              		.cfi_def_cfa_register 13
 230              		@ sp needed
 231 002e 80BD     		pop	{r7, pc}
 232              		.cfi_endproc
 233              	.LFE68:
 235              		.section	.text.rest_esp_init,"ax",%progbits
 236              		.align	1
 237              		.global	rest_esp_init
 238              		.syntax unified
 239              		.thumb
ARM GAS  /tmp/ccFay6qM.s 			page 6


 240              		.thumb_func
 241              		.fpu softvfp
 243              	rest_esp_init:
 244              	.LFB69:
  48:hardware/src/led_c8.c **** 
  49:hardware/src/led_c8.c **** void rest_esp_init(void)
  50:hardware/src/led_c8.c **** {
 245              		.loc 1 50 1
 246              		.cfi_startproc
 247              		@ args = 0, pretend = 0, frame = 8
 248              		@ frame_needed = 1, uses_anonymous_args = 0
 249 0000 80B5     		push	{r7, lr}
 250              	.LCFI15:
 251              		.cfi_def_cfa_offset 8
 252              		.cfi_offset 7, -8
 253              		.cfi_offset 14, -4
 254 0002 82B0     		sub	sp, sp, #8
 255              	.LCFI16:
 256              		.cfi_def_cfa_offset 16
 257 0004 00AF     		add	r7, sp, #0
 258              	.LCFI17:
 259              		.cfi_def_cfa_register 7
  51:hardware/src/led_c8.c ****     GPIO_InitTypeDef     GPIO_InitStrue;
  52:hardware/src/led_c8.c **** 
  53:hardware/src/led_c8.c **** 	RCC_APB2PeriphClockCmd(RCC_APB2Periph_GPIOC,ENABLE);
 260              		.loc 1 53 2
 261 0006 0121     		movs	r1, #1
 262 0008 1020     		movs	r0, #16
 263 000a FFF7FEFF 		bl	RCC_APB2PeriphClockCmd
  54:hardware/src/led_c8.c **** 
  55:hardware/src/led_c8.c ****     GPIO_InitStrue.GPIO_Pin=GPIO_Pin_15;
 264              		.loc 1 55 28
 265 000e 4FF40043 		mov	r3, #32768
 266 0012 BB80     		strh	r3, [r7, #4]	@ movhi
  56:hardware/src/led_c8.c ****     GPIO_InitStrue.GPIO_Mode=GPIO_Mode_Out_PP;
 267              		.loc 1 56 29
 268 0014 1023     		movs	r3, #16
 269 0016 FB71     		strb	r3, [r7, #7]
  57:hardware/src/led_c8.c ****     GPIO_InitStrue.GPIO_Speed=GPIO_Speed_50MHz;
 270              		.loc 1 57 30
 271 0018 0323     		movs	r3, #3
 272 001a BB71     		strb	r3, [r7, #6]
  58:hardware/src/led_c8.c ****     GPIO_Init(GPIOC,&GPIO_InitStrue);
 273              		.loc 1 58 5
 274 001c 3B1D     		adds	r3, r7, #4
 275 001e 1946     		mov	r1, r3
 276 0020 0548     		ldr	r0, .L19
 277 0022 FFF7FEFF 		bl	GPIO_Init
  59:hardware/src/led_c8.c **** 
  60:hardware/src/led_c8.c **** 	GPIO_SetBits(GPIOC,GPIO_Pin_15);
 278              		.loc 1 60 2
 279 0026 4FF40041 		mov	r1, #32768
 280 002a 0348     		ldr	r0, .L19
 281 002c FFF7FEFF 		bl	GPIO_SetBits
  61:hardware/src/led_c8.c **** }
 282              		.loc 1 61 1
 283 0030 00BF     		nop
ARM GAS  /tmp/ccFay6qM.s 			page 7


 284 0032 0837     		adds	r7, r7, #8
 285              	.LCFI18:
 286              		.cfi_def_cfa_offset 8
 287 0034 BD46     		mov	sp, r7
 288              	.LCFI19:
 289              		.cfi_def_cfa_register 13
 290              		@ sp needed
 291 0036 80BD     		pop	{r7, pc}
 292              	.L20:
 293              		.align	2
 294              	.L19:
 295 0038 00100140 		.word	1073811456
 296              		.cfi_endproc
 297              	.LFE69:
 299              		.section	.text.set_reset_pin,"ax",%progbits
 300              		.align	1
 301              		.global	set_reset_pin
 302              		.syntax unified
 303              		.thumb
 304              		.thumb_func
 305              		.fpu softvfp
 307              	set_reset_pin:
 308              	.LFB70:
  62:hardware/src/led_c8.c **** 
  63:hardware/src/led_c8.c **** void set_reset_pin(uint8_t state)
  64:hardware/src/led_c8.c **** {
 309              		.loc 1 64 1
 310              		.cfi_startproc
 311              		@ args = 0, pretend = 0, frame = 8
 312              		@ frame_needed = 1, uses_anonymous_args = 0
 313 0000 80B5     		push	{r7, lr}
 314              	.LCFI20:
 315              		.cfi_def_cfa_offset 8
 316              		.cfi_offset 7, -8
 317              		.cfi_offset 14, -4
 318 0002 82B0     		sub	sp, sp, #8
 319              	.LCFI21:
 320              		.cfi_def_cfa_offset 16
 321 0004 00AF     		add	r7, sp, #0
 322              	.LCFI22:
 323              		.cfi_def_cfa_register 7
 324 0006 0346     		mov	r3, r0
 325 0008 FB71     		strb	r3, [r7, #7]
  65:hardware/src/led_c8.c **** 	if(state){
 326              		.loc 1 65 4
 327 000a FB79     		ldrb	r3, [r7, #7]	@ zero_extendqisi2
 328 000c 002B     		cmp	r3, #0
 329 000e 05D0     		beq	.L22
  66:hardware/src/led_c8.c **** 		GPIO_SetBits(GPIOC,GPIO_Pin_15);
 330              		.loc 1 66 3
 331 0010 4FF40041 		mov	r1, #32768
 332 0014 0648     		ldr	r0, .L25
 333 0016 FFF7FEFF 		bl	GPIO_SetBits
  67:hardware/src/led_c8.c **** 	}
  68:hardware/src/led_c8.c **** 	else{
  69:hardware/src/led_c8.c **** 		GPIO_ResetBits(GPIOC,GPIO_Pin_15);
  70:hardware/src/led_c8.c **** 	}
ARM GAS  /tmp/ccFay6qM.s 			page 8


  71:hardware/src/led_c8.c **** }
 334              		.loc 1 71 1
 335 001a 04E0     		b	.L24
 336              	.L22:
  69:hardware/src/led_c8.c **** 	}
 337              		.loc 1 69 3
 338 001c 4FF40041 		mov	r1, #32768
 339 0020 0348     		ldr	r0, .L25
 340 0022 FFF7FEFF 		bl	GPIO_ResetBits
 341              	.L24:
 342              		.loc 1 71 1
 343 0026 00BF     		nop
 344 0028 0837     		adds	r7, r7, #8
 345              	.LCFI23:
 346              		.cfi_def_cfa_offset 8
 347 002a BD46     		mov	sp, r7
 348              	.LCFI24:
 349              		.cfi_def_cfa_register 13
 350              		@ sp needed
 351 002c 80BD     		pop	{r7, pc}
 352              	.L26:
 353 002e 00BF     		.align	2
 354              	.L25:
 355 0030 00100140 		.word	1073811456
 356              		.cfi_endproc
 357              	.LFE70:
 359              		.section	.text.reset_esp_process,"ax",%progbits
 360              		.align	1
 361              		.global	reset_esp_process
 362              		.syntax unified
 363              		.thumb
 364              		.thumb_func
 365              		.fpu softvfp
 367              	reset_esp_process:
 368              	.LFB71:
  72:hardware/src/led_c8.c **** 
  73:hardware/src/led_c8.c **** void reset_esp_process(void)
  74:hardware/src/led_c8.c **** {
 369              		.loc 1 74 1
 370              		.cfi_startproc
 371              		@ args = 0, pretend = 0, frame = 0
 372              		@ frame_needed = 1, uses_anonymous_args = 0
 373 0000 80B5     		push	{r7, lr}
 374              	.LCFI25:
 375              		.cfi_def_cfa_offset 8
 376              		.cfi_offset 7, -8
 377              		.cfi_offset 14, -4
 378 0002 00AF     		add	r7, sp, #0
 379              	.LCFI26:
 380              		.cfi_def_cfa_register 7
  75:hardware/src/led_c8.c **** 	rest_esp_init();
 381              		.loc 1 75 2
 382 0004 FFF7FEFF 		bl	rest_esp_init
  76:hardware/src/led_c8.c **** 	set_reset_pin(0);
 383              		.loc 1 76 2
 384 0008 0020     		movs	r0, #0
 385 000a FFF7FEFF 		bl	set_reset_pin
ARM GAS  /tmp/ccFay6qM.s 			page 9


  77:hardware/src/led_c8.c **** 	delay_lms(1000);
 386              		.loc 1 77 2
 387 000e 4FF47A70 		mov	r0, #1000
 388 0012 FFF7FEFF 		bl	delay_lms
  78:hardware/src/led_c8.c **** 	set_reset_pin(1);
 389              		.loc 1 78 2
 390 0016 0120     		movs	r0, #1
 391 0018 FFF7FEFF 		bl	set_reset_pin
  79:hardware/src/led_c8.c **** }
 392              		.loc 1 79 1
 393 001c 00BF     		nop
 394 001e 80BD     		pop	{r7, pc}
 395              		.cfi_endproc
 396              	.LFE71:
 398              		.text
 399              	.Letext0:
 400              		.file 2 "/home/pico/tools/gcc-arm-none-eabi-10-2020-q4-major/arm-none-eabi/include/machine/_defaul
 401              		.file 3 "/home/pico/tools/gcc-arm-none-eabi-10-2020-q4-major/arm-none-eabi/include/sys/_stdint.h"
 402              		.file 4 "Inc/stm32f10x.h"
 403              		.file 5 "Drivers/Inc/stm32f10x_gpio.h"
ARM GAS  /tmp/ccFay6qM.s 			page 10

